(dp1
VBEDZ-NC
p2
I384
sVNP$
p3
I8
sVAT-TL
p4
I77
sVCS
p5
I12
sVNP+HVZ
p6
I445
sVIN-TL-HL
p7
I266
sVNR-HL
p8
I178
sVCC-TL-HL
p9
I276
sVNNS$-HL
p10
I191
sVJJS-HL
p11
I297
sVJJ-HL
p12
I98
sVWRB-TL
p13
I251
sVJJT-TL
p14
I337
sVWRB
p15
I44
sVDOD*
p16
I82
sVBER*-NC
p17
I392
sV)-HL
p18
I94
sVNPS$-HL
p19
I220
sVRB-HL
p20
I123
sVFW-PPSS
p21
I324
sVNP+HVZ-NC
p22
I375
sVNNS$
p23
I87
sV--
p24
I71
sVCC-TL
p25
I85
sVFW-NN-TL
p26
I175
sVNP-TL-HL
p27
I147
sVPPSS+MD
p28
I124
sVNPS
p29
I68
sVRBR+CS
p30
I455
sVDTI
p31
I13
sVNPS-TL
p32
I148
sVBEM
p33
I122
sVFW-AT+NP-TL
p34
I254
sVEX+BEZ
p35
I155
sVBEG
p36
I74
sVBED
p37
I72
sVBEZ
p38
I50
sVDTX
p39
I120
sVDOD*-TL
p40
I270
sVFW-VB-NC
p41
I208
sVDTS
p42
I36
sVDTS+BEZ
p43
I463
sVQL-HL
p44
I246
sVNP$-TL
p45
I150
sVWRB+DOD*
p46
I466
sVJJR+CS
p47
I315
sVNN+MD
p48
I314
sVNN-TL-HL
p49
I128
sVHVD-HL
p50
I179
sVNP+BEZ-NC
p51
I406
sVVBN+TO
p52
I288
sV*-TL
p53
I332
sVWDT-HL
p54
I225
sVMD
p55
I46
sVNN-HL
p56
I42
sVFW-BE
p57
I344
sVDT$
p58
I111
sVPN-TL
p59
I273
sVDT-HL
p60
I138
sVFW-NR-TL
p61
I323
sVVBG
p62
I37
sVVBD
p63
I4
sVVBN
p64
I24
sVDOD
p65
I32
sVFW-VBG-TL
p66
I362
sVDOZ
p67
I79
sVABN-TL
p68
I238
sVVB+JJ-NC
p69
I417
sVVBZ
p70
I20
sVRB+CS
p71
I465
sVFW-PN
p72
I334
sVCS-NC
p73
I400
sVVBG-NC
p74
I388
sVBER-HL
p75
I104
sVMD*
p76
I86
sV``
p77
I10
sVWPS-TL
p78
I260
sVOD-TL
p79
I121
sVPPSS-HL
p80
I199
sVPPS+MD
p81
I158
sVDO*
p82
I135
sVDO-HL
p83
I182
sVHVG-HL
p84
I424
sVWRB-HL
p85
I222
sVJJT
p86
I40
sVJJS
p87
I69
sVJJR
p88
I48
sVHV+TO
p89
I431
sVWQL
p90
I215
sVDOD-NC
p91
I410
sVCC-HL
p92
I129
sVFW-PPSS+HV
p93
I469
sVFW-NP-TL
p94
I326
sVMD+TO
p95
I432
sVVB+IN
p96
I284
sVJJT-NC
p97
I409
sVWDT+BEZ-TL
p98
I274
sV---HL
p99
I228
sVPN$
p100
I192
sVVB+PPO
p101
I198
sVBE-TL
p102
I265
sVVBG-TL
p103
I49
sVNP$-HL
p104
I224
sVVBZ-TL
p105
I232
sVUH
p106
I159
sVFW-WPO
p107
I352
sVAP+AP-NC
p108
I416
sVFW-IN
p109
I113
sVNRS-TL
p110
I319
sVABL
p111
I103
sVABN
p112
I53
sVTO-TL
p113
I194
sVABX
p114
I41
sV*-HL
p115
I186
sVFW-WPS
p116
I354
sVVB-NC
p117
I327
sVHVD*
p118
I165
sVPPS+HVD
p119
I317
sVFW-IN+AT
p120
I348
sVFW-NP
p121
I239
sVQLP
p122
I141
sVFW-NR
p123
I346
sVFW-NN
p124
I118
sVPPS+HVZ
p125
I105
sVNNS-NC
p126
I299
sVDT+BEZ-NC
p127
I381
sVPPO
p128
I38
sVPPO-NC
p129
I364
sVEX-HL
p130
I363
sVAP$
p131
I167
sVOD-NC
p132
I405
sVRP
p133
I70
sVWPS+BEZ
p134
I185
sVNN+BEZ
p135
I291
sV.-TL
p136
I339
sV,
I17
sVFW-DT+BEZ
p137
I425
sVRB
p138
I29
sVFW-PP$-NC
p139
I206
sVRN
p140
I231
sVJJ$-TL
p141
I349
sVMD-NC
p142
I398
sVVBD-NC
p143
I385
sVPPSS+BER-N
p144
I365
sVRB+BEZ-NC
p145
I382
sVWPS-HL
p146
I419
sVVBN-NC
p147
I311
sVBEZ-HL
p148
I133
sVPPL-NC
p149
I402
sVBER-TL
p150
I193
sVPP$$
p151
I145
sVNNS+MD
p152
I452
sVPPS-NC
p153
I301
sVFW-UH-NC
p154
I292
sVPPS+BEZ-NC
p155
I397
sVPPSS+BER-TL
p156
I259
sVNR-NC
p157
I369
sVFW-JJ
p158
I195
sVPPS+BEZ-HL
p159
I177
sVNPS$
p160
I126
sVRB-TL
p161
I171
sVVB-TL
p162
I170
sVBEM*
p163
I437
sVMD*-HL
p164
I108
sVFW-CC
p165
I160
sVNP+MD
p166
I456
sVEX+HVZ
p167
I448
sVFW-CD
p168
I214
sVEX+HVD
p169
I426
sVIN-HL
p170
I97
sVFW-CS
p171
I331
sVJJR-HL
p172
I142
sVFW-IN+NP-TL
p173
I310
sVJJ-TL-HL
p174
I219
sVFW-UH
p175
I341
sVEX
p176
I62
sVFW-NNS-NC
p177
I316
sVFW-JJ-NC
p178
I278
sVVBZ-HL
p179
I96
sVVB+RP
p180
I318
sVBEZ-NC
p181
I404
sVPPSS+HV-TL
p182
I269
sVHV*
p183
I267
sVIN
p184
I7
sVPP$-NC
p185
I380
sVNP-NC
p186
I309
sVBEN
p187
I26
sVPP$-TL
p188
I183
sVFW-*-TL
p189
I290
sVFW-OD-TL
p190
I255
sVWPS
p191
I60
sVWPO
p192
I101
sVMD+PPSS
p193
I433
sVWDT+BER
p194
I467
sVWDT+BEZ
p195
I217
sVCD-HL
p196
I100
sVWDT+BEZ-NC
p197
I373
sVWP$
p198
I127
sVDO+PPSS
p199
I460
sVHV-HL
p200
I283
sVDT-NC
p201
I336
sVPN-NC
p202
I302
sVFW-VBZ
p203
I243
sVHVD
p204
I19
sVHVG
p205
I119
sVNN+BEZ-TL
p206
I442
sVHVZ
p207
I52
sVFW-VBD
p208
I281
sVFW-VBG
p209
I322
sVNNS$-TL
p210
I117
sVJJ-TL
p211
I3
sVFW-VBN
p212
I304
sVMD-TL
p213
I172
sVWDT+DOD
p214
I441
sVHV-TL
p215
I333
sVNN-TL
p216
I2
sVPPSS
p217
I55
sVNR$
p218
I81
sVBER
p219
I34
sVFW-VB
p220
I207
sVDT
p221
I30
sVPN+BEZ
p222
I438
sVVBG-HL
p223
I76
sVFW-PPL+VBZ
p224
I355
sVFW-NPS-TL
p225
I329
sVRB$
p226
I180
sVFW-IN+NN
p227
I144
sVFW-CC-TL
p228
I253
sVRBT
p229
I92
sVRBR
p230
I16
sVPPS-TL
p231
I271
sVPPSS+HV
p232
I156
sVJJS-TL
p233
I102
sVNPS-HL
p234
I125
sVWPS+BEZ-TL
p235
I423
sVNNS-TL-HL
p236
I137
sVVBN-TL-NC
p237
I357
sVQL-TL
p238
I211
sVNN+NN-NC
p239
I414
sVJJR-TL
p240
I152
sVNN$-TL
p241
I51
sVFW-QL
p242
I420
sVIN-TL
p243
I22
sVBED-NC
p244
I395
sVNRS
p245
I235
sV.-HL
p246
I164
sVQL
p247
I39
sVPP$-HL
p248
I229
sVWRB+BER
p249
I451
sVJJ
p250
I9
sVWRB+BEZ
p251
I307
sVNNS$-TL-HL
p252
I361
sVPPSS+BEZ
p253
I453
sV(
I65
sVPPSS+BER
p254
I88
sVDT+MD
p255
I430
sVDOZ-TL
p256
I356
sVPPSS+BEM
p257
I90
sVFW-PP$
p258
I295
sVRB+BEZ-HL
p259
I296
sVFW-RB+CC
p260
I351
sVFW-PPS
p261
I345
sVVBG+TO
p262
I286
sVDO*-HL
p263
I293
sVNR+MD
p264
I434
sVPPLS
p265
I99
sVIN+IN
p266
I459
sVBEZ*
p267
I166
sVFW-PPL
p268
I233
sVFW-PPO
p269
I244
sVNNS-HL
p270
I59
sVNIL
p271
I257
sVHVN
p272
I112
sVPPSS+BER-NC
p273
I399
sVAP-TL
p274
I131
sVFW-DT
p275
I114
sV(-HL
p276
I93
sVDTI-TL
p277
I338
sVJJ+JJ-NC
p278
I415
sVFW-RB
p279
I303
sVFW-VBD-TL
p280
I249
sVBER-NC
p281
I367
sVNNS$-NC
p282
I401
sVJJ-NC
p283
I204
sVNPS$-TL
p284
I210
sVVB+VB-NC
p285
I418
sVPN
p286
I54
sVVB+TO
p287
I429
sVAT-TL-HL
p288
I277
sVBEM-NC
p289
I412
sVPPL-TL
p290
I305
sVABN-HL
p291
I176
sVRB-NC
p292
I227
sVDO-NC
p293
I394
sVBE-HL
p294
I139
sVWRB+IN
p295
I444
sVFW-UH-TL
p296
I471
sVPPO-HL
p297
I218
sVFW-CD-TL
p298
I343
sVTO-HL
p299
I134
sVPPS+BEZ
p300
I130
sVCD$
p301
I189
sVDO
p302
I57
sVEX+MD
p303
I340
sVHVZ-TL
p304
I261
sVTO-NC
p305
I368
sVIN-NC
p306
I242
sV.
I15
sVWRB+DO
p307
I443
sVCD-NC
p308
I377
sVFW-PPO+IN
p309
I335
sVFW-NN$-TL
p310
I289
sVWDT+BEZ-HL
p311
I223
sVRP-HL
p312
I107
sVCC
p313
I21
sVNN+HVZ-TL
p314
I449
sVFW-NNS-TL
p315
I248
sVDT+BEZ
p316
I154
sVWPS+HVZ
p317
I427
sVBEDZ*
p318
I83
sVNP-TL
p319
I1
sV:-TL
p320
I230
sVNN-NC
p321
I203
sVWPO-TL
p322
I234
sVQL-NC
p323
I378
sVFW-AT+NN-TL
p324
I256
sVWDT+HVZ
p325
I306
sV.-NC
p326
I374
sVFW-DTS
p327
I360
sVNP-HL
p328
I80
sV:-HL
p329
I157
sVRBR-NC
p330
I403
sVOD-HL
p331
I151
sVBEDZ-HL
p332
I162
sVVBD-TL
p333
I153
sVNPS-NC
p334
I413
sV)
I66
sVTO+VB
p335
I457
sVFW-IN+NN-TL
p336
I201
sVPPL
p337
I78
sVPPS
p338
I31
sVPPSS+VB
p339
I450
sVDT-TL
p340
I247
sVRP-NC
p341
I386
sVVB
p342
I28
sVFW-VB-TL
p343
I350
sVPP$
p344
I56
sVVBD-HL
p345
I106
sVDTI-HL
p346
I187
sVNN-TL-NC
p347
I359
sVPPL-HL
p348
I240
sVDOZ*
p349
I140
sVNR-TL
p350
I116
sVWRB+MD
p351
I447
sVPN+HVZ
p352
I173
sVFW-IN-TL
p353
I184
sVPN+HVD
p354
I470
sVBEN-TL
p355
I262
sVBE
p356
I47
sVWDT
p357
I18
sVWPS+HVD
p358
I439
sVDO-TL
p359
I245
sVFW-NN-NC
p360
I313
sVWRB+BEZ-TL
p361
I250
sVUH-TL
p362
I132
sVJJR-NC
p363
I209
sVNNS
p364
I14
sVPPSS-NC
p365
I300
sVWPS+BEZ-NC
p366
I379
sV,-TL
p367
I282
sVNN$
p368
I58
sVVBN-TL-HL
p369
I136
sVWDT-NC
p370
I383
sVOD
p371
I73
sVFW-OD-NC
p372
I468
sVDOZ*-TL
p373
I328
sVPPSS+HVD
p374
I143
sVCS-TL
p375
I268
sVWRB+DOZ
p376
I462
sVCC-NC
p377
I396
sVHV
p378
I35
sVNN$-HL
p379
I163
sVFW-WDT
p380
I216
sVWRB+DOD
p381
I446
sVNN+HVZ
p382
I287
sVAT-NC
p383
I312
sVNNS-TL
p384
I67
sVFW-BEZ
p385
I320
sVCS-HL
p386
I110
sVWPO-NC
p387
I411
sVFW-BER
p388
I321
sVNNS-TL-NC
p389
I358
sVBEZ-TL
p390
I236
sVFW-IN+AT-T
p391
I258
sVABN-NC
p392
I407
sVNR-TL-HL
p393
I275
sVBEDZ
p394
I23
sVNP+BEZ
p395
I168
sVFW-AT-TL
p396
I169
sVBER*
p397
I190
sVWPS+MD
p398
I308
sVMD-HL
p399
I95
sVBED*
p400
I196
sVHV-NC
p401
I371
sVWPS-NC
p402
I408
sVVBN-HL
p403
I43
sVFW-TO+VB
p404
I347
sVPPSS+MD-NC
p405
I389
sVHVZ*
p406
I200
sVPPS-HL
p407
I294
sVWRB-NC
p408
I366
sVVBN-TL
p409
I115
sVCD-TL-HL
p410
I264
sV,-NC
p411
I372
sVRP-TL
p412
I263
sVAP-HL
p413
I109
sVFW-HV
p414
I325
sVWQL-TL
p415
I252
sVFW-AT
p416
I212
sVNN
p417
I6
sVNR$-TL
p418
I205
sVVBZ-NC
p419
I387
sV*
I61
sVPPSS-TL
p420
I241
sVJJT-HL
p421
I146
sVFW-NNS
p422
I161
sVNP
p423
I25
sVUH-HL
p424
I221
sVNR
p425
I5
sV:
I64
sVFW-NN$
p426
I280
sVRP+IN
p427
I436
sV,-HL
p428
I84
sVJJ-TL-NC
p429
I421
sVAP-NC
p430
I393
sV*-NC
p431
I390
sVVB-HL
p432
I63
sVHVZ-NC
p433
I376
sVDTS-HL
p434
I298
sVFW-JJT
p435
I422
sVFW-JJR
p436
I279
sVFW-JJ-TL
p437
I174
sVFW-*
p438
I213
sVRB+BEZ
p439
I197
sV''
p440
I11
sVVB+AT
p441
I461
sVPN-HL
p442
I188
sVPPO-TL
p443
I237
sVCD-TL
p444
I91
sVUH-NC
p445
I370
sVFW-NN-TL-NC
p446
I353
sVEX-NC
p447
I391
sVPPSS+BEZ*
p448
I454
sVTO
p449
I27
sVWDT+DO+PPS
p450
I464
sVIN+PPO
p451
I458
sVAP
p452
I33
sVAT
p453
I0
sVDOZ-HL
p454
I226
sVFW-RB-TL
p455
I272
sVCD
p456
I45
sVNN+IN
p457
I435
sVFW-AT-HL
p458
I181
sVPN+MD
p459
I428
sV'
I89
sVFW-PP$-TL
p460
I330
sVFW-NPS
p461
I342
sVWDT+BER+PP
p462
I285
sVNN+HVD-TL
p463
I440
sVMD+HV
p464
I149
sVAT-HL
p465
I75
sVFW-IN+AT-TL
p466
I202
s.