(dp1
I0
I288
sI1
I72
sI2
I320
sI3
I12
sI4
I258
sI5
I136
sI6
I2
sI7
I32
sI8
I76
sI9
I260
sI10
I8
sI11
I264
sI12
I1
sI13
I321
sI14
I6
sI15
I0
sI16
I137
sI17
I4
sI18
I384
sI19
I162
sI20
I34
sI21
I256
sI22
I328
sI23
I48
sI24
I16
sI25
I64
sI26
I274
sI27
I292
sI28
I3
sI29
I66
sI30
I17
sI31
I65
sI32
I416
sI33
I5
sI34
I38
sI35
I18
sI36
I81
sI37
I20
sI38
I73
sI39
I96
sI40
I392
sI41
I276
sI42
I128
sI43
I22
sI44
I257
sI45
I68
sI46
I50
sI47
I35
sI48
I13
sI49
I21
sI50
I290
sI51
I161
sI52
I56
sI53
I132
sI54
I69
sI55
I272
sI56
I324
sI57
I130
sI58
I49
sI59
I160
sI60
I322
sI61
I36
sI62
I448
sI63
I97
sI64
I24
sI65
I40
sI66
I9
sI67
I80
sI68
I88
sI69
I138
sI70
I129
sI71
I10
sI72
I42
sI73
I388
sI74
I146
sI75
I224
sI76
I261
sI77
I352
sI78
I140
sI79
I176
sI80
I148
sI81
I232
sI82
I172
sI83
I58
sI84
I41
sI85
I304
sI86
I52
sI87
I194
sI88
I296
sI89
I144
sI90
I153
sI91
I133
sI92
I28
sI93
I83
sI94
I74
sI95
I75
sI96
I19
sI97
I33
sI98
I70
sI99
I200
sI100
I400
sI101
I386
sI102
I27
sI103
I197
sI104
I345
sI105
I53
sI106
I329
sI107
I332
sI108
I171
sI109
I262
sI110
I275
sI111
I442
sI112
I280
sI113
I289
sI114
I158
sI115
I131
sI116
I84
sI117
I163
sI118
I192
sI119
I152
sI120
I201
sI121
I226
sI122
I147
sI123
I268
sI124
I104
sI125
I354
sI126
I57
sI127
I417
sI128
I134
sI129
I11
sI130
I98
sI131
I135
sI132
I177
sI133
I297
sI134
I424
sI135
I164
sI136
I362
sI137
I29
sI138
I458
sI139
I325
sI140
I180
sI141
I408
sI142
I270
sI143
I44
sI144
I364
sI145
I193
sI146
I342
sI147
I430
sI148
I149
sI149
I173
sI150
I37
sI151
I306
sI152
I150
sI153
I181
sI154
I178
sI155
I184
sI156
I228
sI157
I112
sI158
I308
sI159
I25
sI160
I43
sI161
I196
sI162
I347
sI163
I107
sI164
I168
sI165
I169
sI166
I54
sI167
I249
sI168
I154
sI169
I106
sI170
I7
sI171
I67
sI172
I39
sI173
I459
sI174
I82
sI175
I145
sI176
I92
sI177
I426
sI178
I86
sI179
I375
sI180
I425
sI181
I343
sI182
I338
sI183
I266
sI184
I259
sI185
I291
sI186
I302
sI187
I286
sI188
I470
sI189
I241
sI190
I170
sI191
I334
sI192
I77
sI193
I299
sI194
I186
sI195
I26
sI196
I99
sI197
I335
sI198
I393
sI199
I420
sI200
I45
sI201
I230
sI202
I293
sI203
I100
sI204
I385
sI205
I91
sI206
I221
sI207
I265
sI208
I231
sI209
I236
sI210
I433
sI211
I245
sI212
I71
sI213
I353
sI214
I346
sI215
I449
sI216
I156
sI217
I298
sI218
I406
sI219
I326
sI220
I287
sI221
I188
sI222
I340
sI223
I434
sI224
I105
sI225
I390
sI226
I79
sI227
I85
sI228
I114
sI229
I344
sI230
I122
sI231
I466
sI232
I166
sI233
I217
sI234
I167
sI235
I202
sI236
I450
sI237
I141
sI238
I109
sI239
I179
sI240
I379
sI241
I456
sI242
I273
sI243
I301
sI244
I214
sI245
I23
sI246
I402
sI247
I51
sI248
I208
sI249
I350
sI250
I309
sI251
I213
sI252
I227
sI253
I300
sI254
I427
sI255
I330
sI256
I216
sI257
I209
sI258
I428
sI259
I429
sI260
I387
sI261
I415
sI262
I462
sI263
I251
sI264
I314
sI265
I311
sI266
I113
sI267
I165
sI268
I55
sI269
I316
sI270
I391
sI271
I60
sI272
I278
sI273
I211
sI274
I103
sI275
I61
sI276
I363
sI277
I452
sI278
I365
sI279
I206
sI280
I277
sI281
I205
sI282
I319
sI283
I323
sI284
I294
sI285
I285
sI286
I356
sI287
I195
sI288
I421
sI289
I108
sI290
I233
sI291
I139
sI292
I423
sI293
I410
sI294
I432
sI295
I468
sI296
I310
sI297
I31
sI298
I111
sI299
I212
sI300
I240
sI301
I90
sI302
I185
sI303
I210
sI304
I283
sI305
I303
sI306
I327
sI307
I405
sI308
I404
sI309
I368
sI310
I440
sI311
I418
sI312
I336
sI313
I242
sI314
I252
sI315
I461
sI316
I407
sI317
I116
sI318
I313
sI319
I126
sI320
I47
sI321
I101
sI322
I284
sI323
I253
sI324
I198
sI325
I441
sI326
I389
sI327
I14
sI328
I371
sI329
I471
sI330
I331
sI331
I312
sI332
I380
sI333
I369
sI334
I348
sI335
I215
sI336
I401
sI337
I127
sI338
I412
sI339
I174
sI340
I341
sI341
I118
sI342
I218
sI343
I397
sI344
I317
sI345
I373
sI346
I359
sI347
I414
sI348
I305
sI349
I95
sI350
I370
sI351
I445
sI352
I250
sI353
I349
sI354
I255
sI355
I360
sI356
I463
sI357
I358
sI358
I191
sI359
I220
sI360
I460
sI361
I378
sI362
I377
sI363
I438
sI364
I225
sI365
I94
sI366
I263
sI367
I282
sI368
I337
sI369
I87
sI370
I151
sI371
I89
sI372
I281
sI373
I207
sI374
I142
sI375
I381
sI376
I269
sI377
I413
sI378
I117
sI379
I199
sI380
I204
sI381
I469
sI382
I157
sI383
I78
sI384
I46
sI385
I15
sI386
I394
sI387
I395
sI388
I30
sI389
I333
sI390
I190
sI391
I183
sI392
I361
sI393
I182
sI394
I62
sI395
I110
sI396
I102
sI397
I374
sI398
I411
sI399
I467
sI400
I267
sI401
I248
sI402
I123
sI403
I246
sI404
I396
sI405
I59
sI406
I143
sI407
I238
sI408
I243
sI409
I222
sI410
I219
sI411
I159
sI412
I318
sI413
I271
sI414
I447
sI415
I403
sI416
I383
sI417
I431
sI418
I455
sI419
I315
sI420
I439
sI421
I398
sI422
I382
sI423
I351
sI424
I399
sI425
I229
sI426
I454
sI427
I444
sI428
I372
sI429
I465
sI430
I120
sI431
I93
sI432
I376
sI433
I115
sI434
I247
sI435
I235
sI436
I422
sI437
I203
sI438
I451
sI439
I457
sI440
I175
sI441
I446
sI442
I155
sI443
I355
sI444
I443
sI445
I357
sI446
I244
sI447
I237
sI448
I437
sI449
I453
sI450
I63
sI451
I339
sI452
I121
sI453
I187
sI454
I119
sI455
I223
sI456
I464
sI457
I279
sI458
I124
sI459
I254
sI460
I125
sI461
I189
sI462
I366
sI463
I307
sI464
I436
sI465
I239
sI466
I295
sI467
I234
sI468
I419
sI469
I435
sI470
I409
sI471
I367
s.