(dp1
I0
VAT
p2
sI1
VNP-TL
p3
sI2
VNN-TL
p4
sI3
VJJ-TL
p5
sI4
VVBD
p6
sI5
VNR
p7
sI6
VNN
p8
sI7
VIN
p9
sI8
VNP$
p10
sI9
VJJ
p11
sI10
V``
p12
sI11
V''
p13
sI12
VCS
p14
sI13
VDTI
p15
sI14
VNNS
p16
sI15
V.
sI16
VRBR
p17
sI17
V,
sI18
VWDT
p18
sI19
VHVD
p19
sI20
VVBZ
p20
sI21
VCC
p21
sI22
VIN-TL
p22
sI23
VBEDZ
p23
sI24
VVBN
p24
sI25
VNP
p25
sI26
VBEN
p26
sI27
VTO
p27
sI28
VVB
p28
sI29
VRB
p29
sI30
VDT
p30
sI31
VPPS
p31
sI32
VDOD
p32
sI33
VAP
p33
sI34
VBER
p34
sI35
VHV
p35
sI36
VDTS
p36
sI37
VVBG
p37
sI38
VPPO
p38
sI39
VQL
p39
sI40
VJJT
p40
sI41
VABX
p41
sI42
VNN-HL
p42
sI43
VVBN-HL
p43
sI44
VWRB
p44
sI45
VCD
p45
sI46
VMD
p46
sI47
VBE
p47
sI48
VJJR
p48
sI49
VVBG-TL
p49
sI50
VBEZ
p50
sI51
VNN$-TL
p51
sI52
VHVZ
p52
sI53
VABN
p53
sI54
VPN
p54
sI55
VPPSS
p55
sI56
VPP$
p56
sI57
VDO
p57
sI58
VNN$
p58
sI59
VNNS-HL
p59
sI60
VWPS
p60
sI61
V*
sI62
VEX
p61
sI63
VVB-HL
p62
sI64
V:
sI65
V(
sI66
V)
sI67
VNNS-TL
p63
sI68
VNPS
p64
sI69
VJJS
p65
sI70
VRP
p66
sI71
V--
p67
sI72
VBED
p68
sI73
VOD
p69
sI74
VBEG
p70
sI75
VAT-HL
p71
sI76
VVBG-HL
p72
sI77
VAT-TL
p73
sI78
VPPL
p74
sI79
VDOZ
p75
sI80
VNP-HL
p76
sI81
VNR$
p77
sI82
VDOD*
p78
sI83
VBEDZ*
p79
sI84
V,-HL
p80
sI85
VCC-TL
p81
sI86
VMD*
p82
sI87
VNNS$
p83
sI88
VPPSS+BER
p84
sI89
V'
sI90
VPPSS+BEM
p85
sI91
VCD-TL
p86
sI92
VRBT
p87
sI93
V(-HL
p88
sI94
V)-HL
p89
sI95
VMD-HL
p90
sI96
VVBZ-HL
p91
sI97
VIN-HL
p92
sI98
VJJ-HL
p93
sI99
VPPLS
p94
sI100
VCD-HL
p95
sI101
VWPO
p96
sI102
VJJS-TL
p97
sI103
VABL
p98
sI104
VBER-HL
p99
sI105
VPPS+HVZ
p100
sI106
VVBD-HL
p101
sI107
VRP-HL
p102
sI108
VMD*-HL
p103
sI109
VAP-HL
p104
sI110
VCS-HL
p105
sI111
VDT$
p106
sI112
VHVN
p107
sI113
VFW-IN
p108
sI114
VFW-DT
p109
sI115
VVBN-TL
p110
sI116
VNR-TL
p111
sI117
VNNS$-TL
p112
sI118
VFW-NN
p113
sI119
VHVG
p114
sI120
VDTX
p115
sI121
VOD-TL
p116
sI122
VBEM
p117
sI123
VRB-HL
p118
sI124
VPPSS+MD
p119
sI125
VNPS-HL
p120
sI126
VNPS$
p121
sI127
VWP$
p122
sI128
VNN-TL-HL
p123
sI129
VCC-HL
p124
sI130
VPPS+BEZ
p125
sI131
VAP-TL
p126
sI132
VUH-TL
p127
sI133
VBEZ-HL
p128
sI134
VTO-HL
p129
sI135
VDO*
p130
sI136
VVBN-TL-HL
p131
sI137
VNNS-TL-HL
p132
sI138
VDT-HL
p133
sI139
VBE-HL
p134
sI140
VDOZ*
p135
sI141
VQLP
p136
sI142
VJJR-HL
p137
sI143
VPPSS+HVD
p138
sI144
VFW-IN+NN
p139
sI145
VPP$$
p140
sI146
VJJT-HL
p141
sI147
VNP-TL-HL
p142
sI148
VNPS-TL
p143
sI149
VMD+HV
p144
sI150
VNP$-TL
p145
sI151
VOD-HL
p146
sI152
VJJR-TL
p147
sI153
VVBD-TL
p148
sI154
VDT+BEZ
p149
sI155
VEX+BEZ
p150
sI156
VPPSS+HV
p151
sI157
V:-HL
p152
sI158
VPPS+MD
p153
sI159
VUH
p154
sI160
VFW-CC
p155
sI161
VFW-NNS
p156
sI162
VBEDZ-HL
p157
sI163
VNN$-HL
p158
sI164
V.-HL
p159
sI165
VHVD*
p160
sI166
VBEZ*
p161
sI167
VAP$
p162
sI168
VNP+BEZ
p163
sI169
VFW-AT-TL
p164
sI170
VVB-TL
p165
sI171
VRB-TL
p166
sI172
VMD-TL
p167
sI173
VPN+HVZ
p168
sI174
VFW-JJ-TL
p169
sI175
VFW-NN-TL
p170
sI176
VABN-HL
p171
sI177
VPPS+BEZ-HL
p172
sI178
VNR-HL
p173
sI179
VHVD-HL
p174
sI180
VRB$
p175
sI181
VFW-AT-HL
p176
sI182
VDO-HL
p177
sI183
VPP$-TL
p178
sI184
VFW-IN-TL
p179
sI185
VWPS+BEZ
p180
sI186
V*-HL
p181
sI187
VDTI-HL
p182
sI188
VPN-HL
p183
sI189
VCD$
p184
sI190
VBER*
p185
sI191
VNNS$-HL
p186
sI192
VPN$
p187
sI193
VBER-TL
p188
sI194
VTO-TL
p189
sI195
VFW-JJ
p190
sI196
VBED*
p191
sI197
VRB+BEZ
p192
sI198
VVB+PPO
p193
sI199
VPPSS-HL
p194
sI200
VHVZ*
p195
sI201
VFW-IN+NN-TL
p196
sI202
VFW-IN+AT-TL
p197
sI203
VNN-NC
p198
sI204
VJJ-NC
p199
sI205
VNR$-TL
p200
sI206
VFW-PP$-NC
p201
sI207
VFW-VB
p202
sI208
VFW-VB-NC
p203
sI209
VJJR-NC
p204
sI210
VNPS$-TL
p205
sI211
VQL-TL
p206
sI212
VFW-AT
p207
sI213
VFW-*
p208
sI214
VFW-CD
p209
sI215
VWQL
p210
sI216
VFW-WDT
p211
sI217
VWDT+BEZ
p212
sI218
VPPO-HL
p213
sI219
VJJ-TL-HL
p214
sI220
VNPS$-HL
p215
sI221
VUH-HL
p216
sI222
VWRB-HL
p217
sI223
VWDT+BEZ-HL
p218
sI224
VNP$-HL
p219
sI225
VWDT-HL
p220
sI226
VDOZ-HL
p221
sI227
VRB-NC
p222
sI228
V---HL
p223
sI229
VPP$-HL
p224
sI230
V:-TL
p225
sI231
VRN
p226
sI232
VVBZ-TL
p227
sI233
VFW-PPL
p228
sI234
VWPO-TL
p229
sI235
VNRS
p230
sI236
VBEZ-TL
p231
sI237
VPPO-TL
p232
sI238
VABN-TL
p233
sI239
VFW-NP
p234
sI240
VPPL-HL
p235
sI241
VPPSS-TL
p236
sI242
VIN-NC
p237
sI243
VFW-VBZ
p238
sI244
VFW-PPO
p239
sI245
VDO-TL
p240
sI246
VQL-HL
p241
sI247
VDT-TL
p242
sI248
VFW-NNS-TL
p243
sI249
VFW-VBD-TL
p244
sI250
VWRB+BEZ-TL
p245
sI251
VWRB-TL
p246
sI252
VWQL-TL
p247
sI253
VFW-CC-TL
p248
sI254
VFW-AT+NP-TL
p249
sI255
VFW-OD-TL
p250
sI256
VFW-AT+NN-TL
p251
sI257
VNIL
p252
sI258
VFW-IN+AT-T
p253
sI259
VPPSS+BER-TL
p254
sI260
VWPS-TL
p255
sI261
VHVZ-TL
p256
sI262
VBEN-TL
p257
sI263
VRP-TL
p258
sI264
VCD-TL-HL
p259
sI265
VBE-TL
p260
sI266
VIN-TL-HL
p261
sI267
VHV*
p262
sI268
VCS-TL
p263
sI269
VPPSS+HV-TL
p264
sI270
VDOD*-TL
p265
sI271
VPPS-TL
p266
sI272
VFW-RB-TL
p267
sI273
VPN-TL
p268
sI274
VWDT+BEZ-TL
p269
sI275
VNR-TL-HL
p270
sI276
VCC-TL-HL
p271
sI277
VAT-TL-HL
p272
sI278
VFW-JJ-NC
p273
sI279
VFW-JJR
p274
sI280
VFW-NN$
p275
sI281
VFW-VBD
p276
sI282
V,-TL
p277
sI283
VHV-HL
p278
sI284
VVB+IN
p279
sI285
VWDT+BER+PP
p280
sI286
VVBG+TO
p281
sI287
VNN+HVZ
p282
sI288
VVBN+TO
p283
sI289
VFW-NN$-TL
p284
sI290
VFW-*-TL
p285
sI291
VNN+BEZ
p286
sI292
VFW-UH-NC
p287
sI293
VDO*-HL
p288
sI294
VPPS-HL
p289
sI295
VFW-PP$
p290
sI296
VRB+BEZ-HL
p291
sI297
VJJS-HL
p292
sI298
VDTS-HL
p293
sI299
VNNS-NC
p294
sI300
VPPSS-NC
p295
sI301
VPPS-NC
p296
sI302
VPN-NC
p297
sI303
VFW-RB
p298
sI304
VFW-VBN
p299
sI305
VPPL-TL
p300
sI306
VWDT+HVZ
p301
sI307
VWRB+BEZ
p302
sI308
VWPS+MD
p303
sI309
VNP-NC
p304
sI310
VFW-IN+NP-TL
p305
sI311
VVBN-NC
p306
sI312
VAT-NC
p307
sI313
VFW-NN-NC
p308
sI314
VNN+MD
p309
sI315
VJJR+CS
p310
sI316
VFW-NNS-NC
p311
sI317
VPPS+HVD
p312
sI318
VVB+RP
p313
sI319
VNRS-TL
p314
sI320
VFW-BEZ
p315
sI321
VFW-BER
p316
sI322
VFW-VBG
p317
sI323
VFW-NR-TL
p318
sI324
VFW-PPSS
p319
sI325
VFW-HV
p320
sI326
VFW-NP-TL
p321
sI327
VVB-NC
p322
sI328
VDOZ*-TL
p323
sI329
VFW-NPS-TL
p324
sI330
VFW-PP$-TL
p325
sI331
VFW-CS
p326
sI332
V*-TL
p327
sI333
VHV-TL
p328
sI334
VFW-PN
p329
sI335
VFW-PPO+IN
p330
sI336
VDT-NC
p331
sI337
VJJT-TL
p332
sI338
VDTI-TL
p333
sI339
V.-TL
p334
sI340
VEX+MD
p335
sI341
VFW-UH
p336
sI342
VFW-NPS
p337
sI343
VFW-CD-TL
p338
sI344
VFW-BE
p339
sI345
VFW-PPS
p340
sI346
VFW-NR
p341
sI347
VFW-TO+VB
p342
sI348
VFW-IN+AT
p343
sI349
VJJ$-TL
p344
sI350
VFW-VB-TL
p345
sI351
VFW-RB+CC
p346
sI352
VFW-WPO
p347
sI353
VFW-NN-TL-NC
p348
sI354
VFW-WPS
p349
sI355
VFW-PPL+VBZ
p350
sI356
VDOZ-TL
p351
sI357
VVBN-TL-NC
p352
sI358
VNNS-TL-NC
p353
sI359
VNN-TL-NC
p354
sI360
VFW-DTS
p355
sI361
VNNS$-TL-HL
p356
sI362
VFW-VBG-TL
p357
sI363
VEX-HL
p358
sI364
VPPO-NC
p359
sI365
VPPSS+BER-N
p360
sI366
VWRB-NC
p361
sI367
VBER-NC
p362
sI368
VTO-NC
p363
sI369
VNR-NC
p364
sI370
VUH-NC
p365
sI371
VHV-NC
p366
sI372
V,-NC
p367
sI373
VWDT+BEZ-NC
p368
sI374
V.-NC
p369
sI375
VNP+HVZ-NC
p370
sI376
VHVZ-NC
p371
sI377
VCD-NC
p372
sI378
VQL-NC
p373
sI379
VWPS+BEZ-NC
p374
sI380
VPP$-NC
p375
sI381
VDT+BEZ-NC
p376
sI382
VRB+BEZ-NC
p377
sI383
VWDT-NC
p378
sI384
VBEDZ-NC
p379
sI385
VVBD-NC
p380
sI386
VRP-NC
p381
sI387
VVBZ-NC
p382
sI388
VVBG-NC
p383
sI389
VPPSS+MD-NC
p384
sI390
V*-NC
p385
sI391
VEX-NC
p386
sI392
VBER*-NC
p387
sI393
VAP-NC
p388
sI394
VDO-NC
p389
sI395
VBED-NC
p390
sI396
VCC-NC
p391
sI397
VPPS+BEZ-NC
p392
sI398
VMD-NC
p393
sI399
VPPSS+BER-NC
p394
sI400
VCS-NC
p395
sI401
VNNS$-NC
p396
sI402
VPPL-NC
p397
sI403
VRBR-NC
p398
sI404
VBEZ-NC
p399
sI405
VOD-NC
p400
sI406
VNP+BEZ-NC
p401
sI407
VABN-NC
p402
sI408
VWPS-NC
p403
sI409
VJJT-NC
p404
sI410
VDOD-NC
p405
sI411
VWPO-NC
p406
sI412
VBEM-NC
p407
sI413
VNPS-NC
p408
sI414
VNN+NN-NC
p409
sI415
VJJ+JJ-NC
p410
sI416
VAP+AP-NC
p411
sI417
VVB+JJ-NC
p412
sI418
VVB+VB-NC
p413
sI419
VWPS-HL
p414
sI420
VFW-QL
p415
sI421
VJJ-TL-NC
p416
sI422
VFW-JJT
p417
sI423
VWPS+BEZ-TL
p418
sI424
VHVG-HL
p419
sI425
VFW-DT+BEZ
p420
sI426
VEX+HVD
p421
sI427
VWPS+HVZ
p422
sI428
VPN+MD
p423
sI429
VVB+TO
p424
sI430
VDT+MD
p425
sI431
VHV+TO
p426
sI432
VMD+TO
p427
sI433
VMD+PPSS
p428
sI434
VNR+MD
p429
sI435
VNN+IN
p430
sI436
VRP+IN
p431
sI437
VBEM*
p432
sI438
VPN+BEZ
p433
sI439
VWPS+HVD
p434
sI440
VNN+HVD-TL
p435
sI441
VWDT+DOD
p436
sI442
VNN+BEZ-TL
p437
sI443
VWRB+DO
p438
sI444
VWRB+IN
p439
sI445
VNP+HVZ
p440
sI446
VWRB+DOD
p441
sI447
VWRB+MD
p442
sI448
VEX+HVZ
p443
sI449
VNN+HVZ-TL
p444
sI450
VPPSS+VB
p445
sI451
VWRB+BER
p446
sI452
VNNS+MD
p447
sI453
VPPSS+BEZ
p448
sI454
VPPSS+BEZ*
p449
sI455
VRBR+CS
p450
sI456
VNP+MD
p451
sI457
VTO+VB
p452
sI458
VIN+PPO
p453
sI459
VIN+IN
p454
sI460
VDO+PPSS
p455
sI461
VVB+AT
p456
sI462
VWRB+DOZ
p457
sI463
VDTS+BEZ
p458
sI464
VWDT+DO+PPS
p459
sI465
VRB+CS
p460
sI466
VWRB+DOD*
p461
sI467
VWDT+BER
p462
sI468
VFW-OD-NC
p463
sI469
VFW-PPSS+HV
p464
sI470
VPN+HVD
p465
sI471
VFW-UH-TL
p466
s.